target datalayout = "e-m:e-p270:32:32-p271:32:32-p272:64:64-i64:64-i128:128-f80:128-n8:16:32:64-S128"
target triple = "x86_64-pc-linux-gnu"

%struct.redisContext = type { ptr, i32, [128 x i8], i32, i32, ptr, ptr, i32, ptr, ptr, %struct.anon, %struct.anon.0, ptr, i64, ptr, ptr, ptr, ptr }
%struct.anon = type { ptr, ptr, i32 }
%struct.anon.0 = type { ptr }

@.str.7 = private unnamed_addr constant [14 x i8] c"Out of memory\00", align 1

; Function Attrs: nounwind uwtable
define i32 @__redisAppendCommand(ptr noundef %0, ptr noundef %1, i64 noundef %2) #0 {
  %4 = alloca i32, align 4
  %5 = alloca ptr, align 8
  %6 = alloca ptr, align 8
  %7 = alloca i64, align 8
  %8 = alloca ptr, align 8
  %9 = alloca i32, align 4
  store ptr %0, ptr %5, align 8, !tbaa !40
  store ptr %1, ptr %6, align 8, !tbaa !26
  store i64 %2, ptr %7, align 8, !tbaa !19
  call void @llvm.lifetime.start.p0(i64 8, ptr %8) #10
  %10 = load ptr, ptr %5, align 8, !tbaa !40
  %11 = getelementptr inbounds nuw %struct.redisContext, ptr %10, i32 0, i32 5
  %12 = load ptr, ptr %11, align 8, !tbaa !53
  %13 = load ptr, ptr %6, align 8, !tbaa !26
  %14 = load i64, ptr %7, align 8, !tbaa !19
  %15 = call ptr @hi_sdscatlen(ptr noundef %12, ptr noundef %13, i64 noundef %14)
  store ptr %15, ptr %8, align 8, !tbaa !26
  %16 = load ptr, ptr %8, align 8, !tbaa !26
  %17 = icmp eq ptr %16, null
  br i1 %17, label %18, label %20

18:                                               ; preds = %3
  %19 = load ptr, ptr %5, align 8, !tbaa !40
  call void @__redisSetError(ptr noundef %19, i32 noundef 5, ptr noundef @.str.7)
  store i32 -1, ptr %4, align 4
  store i32 1, ptr %9, align 4
  br label %24

20:                                               ; preds = %3
  %21 = load ptr, ptr %8, align 8, !tbaa !26
  %22 = load ptr, ptr %5, align 8, !tbaa !40
  %23 = getelementptr inbounds nuw %struct.redisContext, ptr %22, i32 0, i32 5
  store ptr %21, ptr %23, align 8, !tbaa !53
  store i32 0, ptr %4, align 4
  store i32 1, ptr %9, align 4
  br label %24

24:                                               ; preds = %20, %18
  call void @llvm.lifetime.end.p0(i64 8, ptr %8) #10
  %25 = load i32, ptr %4, align 4
  ret i32 %25
}

; Function Attrs: nounwind uwtable
define void @__redisSetError(ptr noundef %0, i32 noundef %1, ptr noundef %2) #0 {
  %4 = alloca ptr, align 8
  %5 = alloca i32, align 4
  %6 = alloca ptr, align 8
  %7 = alloca i64, align 8
  store ptr %0, ptr %4, align 8, !tbaa !40
  store i32 %1, ptr %5, align 4, !tbaa !29
  store ptr %2, ptr %6, align 8, !tbaa !26
  call void @llvm.lifetime.start.p0(i64 8, ptr %7) #10
  %8 = load i32, ptr %5, align 4, !tbaa !29
  %9 = load ptr, ptr %4, align 8, !tbaa !40
  %10 = getelementptr inbounds nuw %struct.redisContext, ptr %9, i32 0, i32 1
  store i32 %8, ptr %10, align 8, !tbaa !42
  %11 = load ptr, ptr %6, align 8, !tbaa !26
  %12 = icmp ne ptr %11, null
  br i1 %12, label %13, label %32

13:                                               ; preds = %3
  %14 = load ptr, ptr %6, align 8, !tbaa !26
  %15 = call i64 @strlen(ptr noundef %14) #11
  store i64 %15, ptr %7, align 8, !tbaa !19
  %16 = load i64, ptr %7, align 8, !tbaa !19
  %17 = icmp ult i64 %16, 127
  br i1 %17, label %18, label %20

18:                                               ; preds = %13
  %19 = load i64, ptr %7, align 8, !tbaa !19
  br label %21

20:                                               ; preds = %13
  br label %21

21:                                               ; preds = %20, %18
  %22 = phi i64 [ %19, %18 ], [ 127, %20 ]
  store i64 %22, ptr %7, align 8, !tbaa !19
  %23 = load ptr, ptr %4, align 8, !tbaa !40
  %24 = getelementptr inbounds nuw %struct.redisContext, ptr %23, i32 0, i32 2
  %25 = getelementptr inbounds [128 x i8], ptr %24, i64 0, i64 0
  %26 = load ptr, ptr %6, align 8, !tbaa !26
  %27 = load i64, ptr %7, align 8, !tbaa !19
  call void @llvm.memcpy.p0.p0.i64(ptr align 4 %25, ptr align 1 %26, i64 %27, i1 false)
  %28 = load ptr, ptr %4, align 8, !tbaa !40
  %29 = getelementptr inbounds nuw %struct.redisContext, ptr %28, i32 0, i32 2
  %30 = load i64, ptr %7, align 8, !tbaa !19
  %31 = getelementptr inbounds nuw [128 x i8], ptr %29, i64 0, i64 %30
  store i8 0, ptr %31, align 1, !tbaa !30
  br label %39

32:                                               ; preds = %3
  %33 = call ptr @__errno_location() #12
  %34 = load i32, ptr %33, align 4, !tbaa !29
  %35 = load ptr, ptr %4, align 8, !tbaa !40
  %36 = getelementptr inbounds nuw %struct.redisContext, ptr %35, i32 0, i32 2
  %37 = getelementptr inbounds [128 x i8], ptr %36, i64 0, i64 0
  %38 = call i32 @__xpg_strerror_r(i32 noundef %34, ptr noundef %37, i64 noundef 128) #10
  br label %39

39:                                               ; preds = %32, %21
  call void @llvm.lifetime.end.p0(i64 8, ptr %7) #10
  ret void
}

; Function Attrs: nounwind uwtable
define internal ptr @__redisBlockForReply(ptr noundef %0) #0 {
  %2 = alloca ptr, align 8
  %3 = alloca ptr, align 8
  %4 = alloca ptr, align 8
  %5 = alloca i32, align 4
  store ptr %0, ptr %3, align 8, !tbaa !40
  call void @llvm.lifetime.start.p0(i64 8, ptr %4) #10
  %6 = load ptr, ptr %3, align 8, !tbaa !40
  %7 = getelementptr inbounds nuw %struct.redisContext, ptr %6, i32 0, i32 4
  %8 = load i32, ptr %7, align 8, !tbaa !68
  %9 = and i32 %8, 1
  %10 = icmp ne i32 %9, 0
  br i1 %10, label %11, label %18

11:                                               ; preds = %1
  %12 = load ptr, ptr %3, align 8, !tbaa !40
  %13 = call i32 @redisGetReply(ptr noundef %12, ptr noundef %4)
  %14 = icmp ne i32 %13, 0
  br i1 %14, label %15, label %16

15:                                               ; preds = %11
  store ptr null, ptr %2, align 8
  store i32 1, ptr %5, align 4
  br label %19

16:                                               ; preds = %11
  %17 = load ptr, ptr %4, align 8, !tbaa !4
  store ptr %17, ptr %2, align 8
  store i32 1, ptr %5, align 4
  br label %19

18:                                               ; preds = %1
  store ptr null, ptr %2, align 8
  store i32 1, ptr %5, align 4
  br label %19

19:                                               ; preds = %18, %16, %15
  call void @llvm.lifetime.end.p0(i64 8, ptr %4) #10
  %20 = load ptr, ptr %2, align 8
  ret ptr %20
}

; Function Attrs: nounwind uwtable
define i32 @redisAppendCommandArgv(ptr noundef %0, i32 noundef %1, ptr noundef %2, ptr noundef %3) #0 {
  %5 = alloca i32, align 4
  %6 = alloca ptr, align 8
  %7 = alloca i32, align 4
  %8 = alloca ptr, align 8
  %9 = alloca ptr, align 8
  %10 = alloca ptr, align 8
  %11 = alloca i64, align 8
  %12 = alloca i32, align 4
  store ptr %0, ptr %6, align 8, !tbaa !40
  store i32 %1, ptr %7, align 4, !tbaa !29
  store ptr %2, ptr %8, align 8, !tbaa !24
  store ptr %3, ptr %9, align 8, !tbaa !37
  call void @llvm.lifetime.start.p0(i64 8, ptr %10) #10
  call void @llvm.lifetime.start.p0(i64 8, ptr %11) #10
  %13 = load i32, ptr %7, align 4, !tbaa !29
  %14 = load ptr, ptr %8, align 8, !tbaa !24
  %15 = load ptr, ptr %9, align 8, !tbaa !37
  %16 = call i64 @redisFormatSdsCommandArgv(ptr noundef %10, i32 noundef %13, ptr noundef %14, ptr noundef %15)
  store i64 %16, ptr %11, align 8, !tbaa !39
  %17 = load i64, ptr %11, align 8, !tbaa !39
  %18 = icmp eq i64 %17, -1
  br i1 %18, label %19, label %21

19:                                               ; preds = %4
  %20 = load ptr, ptr %6, align 8, !tbaa !40
  call void @__redisSetError(ptr noundef %20, i32 noundef 5, ptr noundef @.str.7)
  store i32 -1, ptr %5, align 4
  store i32 1, ptr %12, align 4
  br label %31

21:                                               ; preds = %4
  %22 = load ptr, ptr %6, align 8, !tbaa !40
  %23 = load ptr, ptr %10, align 8, !tbaa !26
  %24 = load i64, ptr %11, align 8, !tbaa !39
  %25 = call i32 @__redisAppendCommand(ptr noundef %22, ptr noundef %23, i64 noundef %24)
  %26 = icmp ne i32 %25, 0
  br i1 %26, label %27, label %29

27:                                               ; preds = %21
  %28 = load ptr, ptr %10, align 8, !tbaa !26
  call void @hi_sdsfree(ptr noundef %28)
  store i32 -1, ptr %5, align 4
  store i32 1, ptr %12, align 4
  br label %31

29:                                               ; preds = %21
  %30 = load ptr, ptr %10, align 8, !tbaa !26
  call void @hi_sdsfree(ptr noundef %30)
  store i32 0, ptr %5, align 4
  store i32 1, ptr %12, align 4
  br label %31

31:                                               ; preds = %29, %27, %19
  call void @llvm.lifetime.end.p0(i64 8, ptr %11) #10
  call void @llvm.lifetime.end.p0(i64 8, ptr %10) #10
  %32 = load i32, ptr %5, align 4
  ret i32 %32
}

; Function Attrs: nounwind uwtable
define ptr @redisCommandArgv(ptr noundef %0, i32 noundef %1, ptr noundef %2, ptr noundef %3) #0 {
  %5 = alloca ptr, align 8
  %6 = alloca ptr, align 8
  %7 = alloca i32, align 4
  %8 = alloca ptr, align 8
  %9 = alloca ptr, align 8
  store ptr %0, ptr %6, align 8, !tbaa !40
  store i32 %1, ptr %7, align 4, !tbaa !29
  store ptr %2, ptr %8, align 8, !tbaa !24
  store ptr %3, ptr %9, align 8, !tbaa !37
  %10 = load ptr, ptr %6, align 8, !tbaa !40
  %11 = load i32, ptr %7, align 4, !tbaa !29
  %12 = load ptr, ptr %8, align 8, !tbaa !24
  %13 = load ptr, ptr %9, align 8, !tbaa !37
  %14 = call i32 @redisAppendCommandArgv(ptr noundef %10, i32 noundef %11, ptr noundef %12, ptr noundef %13)
  %15 = icmp ne i32 %14, 0
  br i1 %15, label %16, label %17

16:                                               ; preds = %4
  store ptr null, ptr %5, align 8
  br label %20

17:                                               ; preds = %4
  %18 = load ptr, ptr %6, align 8, !tbaa !40
  %19 = call ptr @__redisBlockForReply(ptr noundef %18)
  store ptr %19, ptr %5, align 8
  br label %20

20:                                               ; preds = %17, %16
  %21 = load ptr, ptr %5, align 8
  ret ptr %21
}