; Function Attrs: nounwind uwtable
define ptr @redisCommandArgv(ptr noundef %0, i32 noundef %1, ptr noundef readonly captures(none) %2, ptr noundef captures(address_is_null) %3) local_unnamed_addr #0 {
  %5 = alloca ptr, align 8
  %6 = alloca ptr, align 8
  call void @llvm.lifetime.start.p0(i64 8, ptr nonnull %6) #13
  %7 = call i64 @redisFormatSdsCommandArgv(ptr noundef nonnull %6, i32 noundef %1, ptr noundef readonly %2, ptr noundef %3)
  %8 = icmp eq i64 %7, -1
  br i1 %8, label %9, label %13

9:                                                ; preds = %4
  %10 = getelementptr inbounds nuw i8, ptr %0, i64 8
  store i32 5, ptr %10, align 8, !tbaa !32
  %11 = getelementptr inbounds nuw i8, ptr %0, i64 12
  call void @llvm.memcpy.p0.p0.i64(ptr noundef nonnull align 4 dereferenceable(13) %11, ptr noundef nonnull align 1 dereferenceable(13) @.str.7, i64 13, i1 false)
  %12 = getelementptr inbounds nuw i8, ptr %0, i64 25
  store i8 0, ptr %12, align 1, !tbaa !22
  br label %redisAppendCommandArgv.exit.thread

13:                                               ; preds = %4
  %14 = load ptr, ptr %6, align 8, !tbaa !24
  %15 = getelementptr inbounds nuw i8, ptr %0, i64 152
  %16 = load ptr, ptr %15, align 8, !tbaa !43
  %17 = call ptr @hi_sdscatlen(ptr noundef %16, ptr noundef %14, i64 noundef %7) #13
  %18 = icmp eq ptr %17, null
  br i1 %18, label %19, label %24

19:                                               ; preds = %13
  %20 = getelementptr inbounds nuw i8, ptr %0, i64 8
  store i32 5, ptr %20, align 8, !tbaa !32
  %21 = getelementptr inbounds nuw i8, ptr %0, i64 12
  call void @llvm.memcpy.p0.p0.i64(ptr noundef nonnull align 4 dereferenceable(13) %21, ptr noundef nonnull align 1 dereferenceable(13) @.str.7, i64 13, i1 false)
  %22 = getelementptr inbounds nuw i8, ptr %0, i64 25
  store i8 0, ptr %22, align 1, !tbaa !22
  %23 = load ptr, ptr %6, align 8, !tbaa !24
  call void @hi_sdsfree(ptr noundef %23) #13
  br label %redisAppendCommandArgv.exit.thread

redisAppendCommandArgv.exit.thread:               ; preds = %9, %19
  call void @llvm.lifetime.end.p0(i64 8, ptr nonnull %6) #13
  br label %32

24:                                               ; preds = %13
  store ptr %17, ptr %15, align 8, !tbaa !43
  %25 = load ptr, ptr %6, align 8, !tbaa !24
  call void @hi_sdsfree(ptr noundef %25) #13
  call void @llvm.lifetime.end.p0(i64 8, ptr nonnull %6) #13
  call void @llvm.lifetime.start.p0(i64 8, ptr nonnull %5) #13
  %26 = getelementptr inbounds nuw i8, ptr %0, i64 144
  %27 = load i32, ptr %26, align 8, !tbaa !58
  %28 = and i32 %27, 1
  %.not.i = icmp eq i32 %28, 0
  br i1 %.not.i, label %__redisBlockForReply.exit, label %29

29:                                               ; preds = %24
  %30 = call i32 @redisGetReply(ptr noundef nonnull %0, ptr noundef nonnull %5)
  %.not3.i = icmp eq i32 %30, 0
  %31 = load ptr, ptr %5, align 8
  %spec.select.i = select i1 %.not3.i, ptr %31, ptr null
  br label %__redisBlockForReply.exit

__redisBlockForReply.exit:                        ; preds = %24, %29
  %.0.i5 = phi ptr [ null, %24 ], [ %spec.select.i, %29 ]
  call void @llvm.lifetime.end.p0(i64 8, ptr nonnull %5) #13
  br label %32

32:                                               ; preds = %redisAppendCommandArgv.exit.thread, %__redisBlockForReply.exit
  %.0 = phi ptr [ %.0.i5, %__redisBlockForReply.exit ], [ null, %redisAppendCommandArgv.exit.thread ]
  ret ptr %.0
}